; Function Attrs: nounwind uwtable
define noalias ptr @l_Subarray_forInUnsafe_loop___at_Lean_Compiler_LCNF_FindUsed_visitLetValue___spec__3(ptr noundef readonly captures(none) %0, i64 noundef %1, i64 noundef %2, ptr noundef %3, ptr noundef readonly captures(none) %4, ptr noundef %5, ptr readnone captures(none) %6, ptr readnone captures(none) %7, ptr readnone captures(none) %8, ptr readnone captures(none) %9, ptr noundef %10) local_unnamed_addr #0 {
  %.not52 = icmp ult i64 %2, %1
  br i1 %.not52, label %.lr.ph, label %._crit_edge

.lr.ph:                                           ; preds = %11
  %12 = getelementptr inbounds nuw i8, ptr %0, i64 8
  br label %16

._crit_edge:                                      ; preds = %58, %11
  %.033.lcssa = phi ptr [ %10, %11 ], [ %40, %58 ]
  %.031.lcssa = phi ptr [ %3, %11 ], [ inttoptr (i64 1 to ptr), %58 ]
  tail call void @lean_inc_heartbeat() #4
  %13 = tail call noalias ptr @mi_malloc_small(i64 noundef 24) #4
  %14 = icmp eq ptr %13, null
  br i1 %14, label %15, label %60

15:                                               ; preds = %._crit_edge
  tail call void @lean_internal_panic_out_of_memory() #5
  unreachable

16:                                               ; preds = %.lr.ph, %58
  %.02955 = phi i64 [ %2, %.lr.ph ], [ %59, %58 ]
  %.03154 = phi ptr [ %3, %.lr.ph ], [ inttoptr (i64 1 to ptr), %58 ]
  %.03353 = phi ptr [ %10, %.lr.ph ], [ %40, %58 ]
  %17 = ptrtoint ptr %.03154 to i64
  %18 = and i64 %17, 1
  %.not49 = icmp eq i64 %18, 0
  br i1 %.not49, label %19, label %lean_dec.exit36

19:                                               ; preds = %16
  %20 = load i32, ptr %.03154, align 4, !tbaa !8
  %21 = icmp sgt i32 %20, 1
  br i1 %21, label %22, label %24, !prof !11

22:                                               ; preds = %19
  %23 = add nsw i32 %20, -1
  store i32 %23, ptr %.03154, align 4, !tbaa !8
  br label %lean_dec.exit36

24:                                               ; preds = %19
  %.not.i = icmp eq i32 %20, 0
  br i1 %.not.i, label %lean_dec.exit36, label %25

25:                                               ; preds = %24
  tail call void @lean_dec_ref_cold(ptr noundef nonnull %.03154) #4
  br label %lean_dec.exit36

lean_dec.exit36:                                  ; preds = %25, %24, %22, %16
  %26 = load ptr, ptr %12, align 8, !tbaa !4
  %27 = getelementptr inbounds nuw i8, ptr %26, i64 24
  %28 = getelementptr inbounds nuw [0 x ptr], ptr %27, i64 0, i64 %.02955
  %29 = load ptr, ptr %28, align 8, !tbaa !4
  %30 = ptrtoint ptr %29 to i64
  %31 = and i64 %30, 1
  %.not.i39 = icmp eq i64 %31, 0
  br i1 %.not.i39, label %32, label %lean_array_uget.exit

32:                                               ; preds = %lean_dec.exit36
  %.val.i.i = load i32, ptr %29, align 4, !tbaa !8
  %33 = icmp sgt i32 %.val.i.i, 0
  br i1 %33, label %34, label %36, !prof !11

34:                                               ; preds = %32
  %35 = add nuw i32 %.val.i.i, 1
  store i32 %35, ptr %29, align 4, !tbaa !8
  br label %lean_array_uget.exit

36:                                               ; preds = %32
  %.not.i.i = icmp eq i32 %.val.i.i, 0
  br i1 %.not.i.i, label %lean_array_uget.exit, label %37

37:                                               ; preds = %36
  tail call void @lean_inc_ref_cold(ptr noundef nonnull %29) #4
  br label %lean_array_uget.exit

lean_array_uget.exit:                             ; preds = %lean_dec.exit36, %34, %36, %37
  %38 = tail call ptr @l_Lean_Compiler_LCNF_FindUsed_visitArg(ptr noundef %29, ptr noundef %4, ptr noundef %5, ptr poison, ptr poison, ptr poison, ptr poison, ptr noundef %.03353)
  %39 = getelementptr inbounds nuw i8, ptr %38, i64 16
  %40 = load ptr, ptr %39, align 8, !tbaa !4
  %41 = ptrtoint ptr %40 to i64
  %42 = and i64 %41, 1
  %.not50 = icmp eq i64 %42, 0
  br i1 %.not50, label %43, label %lean_inc.exit

43:                                               ; preds = %lean_array_uget.exit
  %.val.i = load i32, ptr %40, align 4, !tbaa !8
  %44 = icmp sgt i32 %.val.i, 0
  br i1 %44, label %45, label %47, !prof !11

45:                                               ; preds = %43
  %46 = add nuw i32 %.val.i, 1
  store i32 %46, ptr %40, align 4, !tbaa !8
  br label %lean_inc.exit

47:                                               ; preds = %43
  %.not.i40 = icmp eq i32 %.val.i, 0
  br i1 %.not.i40, label %lean_inc.exit, label %48

48:                                               ; preds = %47
  tail call void @lean_inc_ref_cold(ptr noundef nonnull %40) #4
  br label %lean_inc.exit

lean_inc.exit:                                    ; preds = %48, %47, %45, %lean_array_uget.exit
  %49 = ptrtoint ptr %38 to i64
  %50 = and i64 %49, 1
  %.not51 = icmp eq i64 %50, 0
  br i1 %.not51, label %51, label %58

51:                                               ; preds = %lean_inc.exit
  %52 = load i32, ptr %38, align 4, !tbaa !8
  %53 = icmp sgt i32 %52, 1
  br i1 %53, label %54, label %56, !prof !11

54:                                               ; preds = %51
  %55 = add nsw i32 %52, -1
  store i32 %55, ptr %38, align 4, !tbaa !8
  br label %58

56:                                               ; preds = %51
  %.not.i37 = icmp eq i32 %52, 0
  br i1 %.not.i37, label %58, label %57

57:                                               ; preds = %56
  tail call void @lean_dec_ref_cold(ptr noundef nonnull %38) #4
  br label %58

58:                                               ; preds = %lean_inc.exit, %54, %56, %57
  %59 = add nuw i64 %.02955, 1
  %exitcond.not = icmp eq i64 %59, %1
  br i1 %exitcond.not, label %._crit_edge, label %16

60:                                               ; preds = %._crit_edge
  %61 = getelementptr inbounds nuw i8, ptr %13, i64 4
  store i32 1, ptr %13, align 4, !tbaa !8
  store i32 131096, ptr %61, align 4
  %62 = getelementptr inbounds nuw i8, ptr %13, i64 8
  store ptr %.031.lcssa, ptr %62, align 8, !tbaa !4
  %63 = getelementptr inbounds nuw i8, ptr %13, i64 16
  store ptr %.033.lcssa, ptr %63, align 8, !tbaa !4
  ret ptr %13
}